     1 00000000                                 ; hello-os
     2 00000000                                 ; TAB=4
     3 00000000                                 
     4  = 0000000A                              CYLS	EQU		10
     5 00000000                                 
     6                                          	ORG	0x7c00
     7 00007C00                                 
     8 00007C00                                 ;
     9 00007C00 EB 4E                           	JMP	entry
    10 00007C02 90                              	DB	0x90
    11 00007C03 48 45 4C 4C 4F 49 50 4C         	DB	"HELLOIPL"
    12 00007C0B 0200                            	DW	512
    13 00007C0D 01                              	DB	1
    14 00007C0E 0001                            	DW	1
    15 00007C10 02                              	DB	2
    16 00007C11 00E0                            	DW	224
    17 00007C13 0B40                            	DW	2880
    18 00007C15 F0                              	DB	0xf0
    19 00007C16 0009                            	DW	9
    20 00007C18 0012                            	DW	18
    21 00007C1A 0002                            	DW	2
    22 00007C1C 00000000                        	DD	0
    23 00007C20 00000B40                        	DD	2880
    24 00007C24 00 00 29                        	DB	0,0,0x29
    25 00007C27 FFFFFFFF                        	DD	0xffffffff
    26 00007C2B 48 45 4C 4C 4F 2D 4F 53 20 20   	DB	"HELLO-OS   "
       00007C35 20 
    27 00007C36 46 41 54 31 32 20 20 20         	DB	"FAT12   "
    28 00007C3E 00 00 00 00 00 00 00 00 00 00   	RESB	18
       00007C48 00 00 00 00 00 00 00 00 
    29 00007C50                                 
    30 00007C50                                 ;
    31 00007C50                                 
    32 00007C50                                 entry:
    33 00007C50 B8 0000                         	MOV	AX,0
    34 00007C53 8E D0                           	MOV	SS,AX
    35 00007C55 BC 7C00                         	MOV	SP,0x7c00
    36 00007C58 8E D8                           	MOV	DS,AX
    37 00007C5A                                 
    38 00007C5A B8 0820                         	MOV	AX,0x0820
    39 00007C5D 8E C0                           	MOV	ES,AX
    40 00007C5F B5 00                           	MOV	CH,0 		;柱面0
    41 00007C61 B6 00                           	MOV	DH,0 		;磁头0
    42 00007C63 B1 02                           	MOV	CL,2 		;从2扇区开始读盘，1扇区是启动区。
    43 00007C65                                 ;相当于1扇区是从0x008000开始，按照磁盘文件存储格式，
    44 00007C65                                 ;文件名写在0x002600，文件内容（实际操作系统的代码）写在0x004200
    45 00007C65                                 ;故，这里需要在读盘（加载入内存）完毕之后跳转到内存中的相关位置，
    46 00007C65                                 ;即0x008000+0x004200=0x00c200
    47 00007C65                                 
    48 00007C65                                 readloop:
    49 00007C65 BE 0000                         	MOV	SI,0 		;记录失败次数
    50 00007C68                                 
    51 00007C68                                 retry:
    52 00007C68 B4 02                           	MOV	AH,0x02 	;AH=0x02读入磁盘
    53 00007C6A B0 01                           	MOV	AL,1 		;1个扇区
    54 00007C6C BB 0000                         	MOV	BX,0 		
    55 00007C6F B2 00                           	MOV	DL,0x00 	;A驱动器
    56 00007C71 CD 13                           	INT	0x13 		;调用磁盘BIOS
    57 00007C73 73 10                           	JNC	next		;读盘没出错的话跳到fin
    58 00007C75 83 C6 01                        	ADD	SI,1
    59 00007C78 83 FE 05                        	CMP	SI,5
    60 00007C7B 73 35                           	JAE	error		;读盘出错重试5次，还出错跳到error
    61 00007C7D B4 00                           	MOV	AH,0x00
    62 00007C7F B2 00                           	MOV	DL,0x00 	;A驱动器
    63 00007C81 CD 13                           	INT	0x13 		;重置驱动器
    64 00007C83 EB E3                           	JMP	retry
    65 00007C85                                 
    66 00007C85                                 next:
    67 00007C85 8C C0                           	MOV	AX,ES 		;内存地址后移0x200
    68 00007C87 05 0020                         	ADD	AX,0x0020
    69 00007C8A 8E C0                           	MOV	ES,AX 		;因为没有 ADD ES,0x020,所以这里要绕个弯
    70 00007C8C 80 C1 01                        	ADD	CL,1 		;扇区号+1
    71 00007C8F 80 F9 12                        	CMP	CL,18 		;
    72 00007C92 76 D1                           	JBE	readloop 	;如果CL<=18，跳转至readloop
    73 00007C94 B1 01                           	MOV	CL,1
    74 00007C96 80 C6 01                        	ADD	DH,1
    75 00007C99 80 FE 02                        	CMP	DH,2
    76 00007C9C 72 C7                           	JB	readloop 	;如果DH<2，跳转至readloop
    77 00007C9E B6 00                           	MOV	DH,0
    78 00007CA0 80 C5 01                        	ADD	CH,1
    79 00007CA3 80 FD 0A                        	CMP	CH,CYLS
    80 00007CA6 72 BD                           	JB	readloop 	;如果CH<CYLS，跳转至readloop
    81 00007CA8                                 
    82 00007CA8                                 ;读盘完毕之后，跳转到0x00c200
    83 00007CA8 88 2E 0FF0                      	MOV	[0x0ff0],CH 	;保存CYLS值
    84 00007CAC E9 4551                         	JMP	0xc200
    85 00007CAF                                 
    86 00007CAF                                 fin:
    87 00007CAF F4                              	HLT
    88 00007CB0 EB FD                           	JMP	fin
    89 00007CB2                                 
    90 00007CB2                                 error:
    91 00007CB2 BE 7CC7                         	MOV	SI,msg
    92 00007CB5                                 
    93 00007CB5                                 ;输出循环
    94 00007CB5                                 putloop:
    95 00007CB5 8A 04                           	MOV	AL,[SI]
    96 00007CB7 83 C6 01                        	ADD	SI,1
    97 00007CBA 3C 00                           	CMP	AL,0
    98 00007CBC 74 F1                           	JE	fin
    99 00007CBE B4 0E                           	MOV	AH,0x0e
   100 00007CC0 BB 000C                         	MOV	BX,12
   101 00007CC3 CD 10                           	INT	0x10
   102 00007CC5 EB EE                           	JMP	putloop
   103 00007CC7                                 
   104 00007CC7                                 
   105 00007CC7                                 ;显示消息
   106 00007CC7                                 msg:
   107 00007CC7 0A 0A                           	DB	0x0a, 0x0a
   108 00007CC9 6C 6F 61 64 20 65 72 72 6F 72   	DB	"load errors"
       00007CD3 73 
   109 00007CD4 0A                              	DB	0x0a
   110 00007CD5 0A                              	DB	0x0a
   111 00007CD6 2D 2D 2D 2D 2D 2D 2D 2D 2D 2D   	DB	"-----------------------------"
       00007CE0 2D 2D 2D 2D 2D 2D 2D 2D 2D 2D 
       00007CEA 2D 2D 2D 2D 2D 2D 2D 2D 2D 
   112 00007CF3 0A                              	DB	0x0a
   113 00007CF4 7E 7E 20 66 79 74 2C 20 49 20   	DB	"~~ fyt, I love you ~~"
       00007CFE 6C 6F 76 65 20 79 6F 75 20 7E 
       00007D08 7E 
   114 00007D09 0A                              	DB	0x0a
   115 00007D0A 2D 2D 2D 2D 42 79 3A 4E 61 4F   	DB	"----By:NaOH"
       00007D14 48 
   116 00007D15 0A                              	DB	0x0a
   117 00007D16 00                              	DB	0
   118 00007D17                                 
   119 00007D17 00 00 00 00 00 00 00 00 00 00   	RESB	0x7dfe-$
       00007D21 00 00 00 00 00 00 00 00 00 00 
       00007D2B 00 00 00 00 00 00 00 00 00 00 
       00007D35 00 00 00 00 00 00 00 00 00 00 
       00007D3F 00 00 00 00 00 00 00 00 00 00 
       00007D49 00 00 00 00 00 00 00 00 00 00 
       00007D53 00 00 00 00 00 00 00 00 00 00 
       00007D5D 00 00 00 00 00 00 00 00 00 00 
       00007D67 00 00 00 00 00 00 00 00 00 00 
       00007D71 00 00 00 00 00 00 00 00 00 00 
       00007D7B 00 00 00 00 00 00 00 00 00 00 
       00007D85 00 00 00 00 00 00 00 00 00 00 
       00007D8F 00 00 00 00 00 00 00 00 00 00 
       00007D99 00 00 00 00 00 00 00 00 00 00 
       00007DA3 00 00 00 00 00 00 00 00 00 00 
       00007DAD 00 00 00 00 00 00 00 00 00 00 
       00007DB7 00 00 00 00 00 00 00 00 00 00 
       00007DC1 00 00 00 00 00 00 00 00 00 00 
       00007DCB 00 00 00 00 00 00 00 00 00 00 
       00007DD5 00 00 00 00 00 00 00 00 00 00 
       00007DDF 00 00 00 00 00 00 00 00 00 00 
       00007DE9 00 00 00 00 00 00 00 00 00 00 
       00007DF3 00 00 00 00 00 00 00 00 00 00 
       00007DFD 00 
   120 00007DFE 55 AA                           	DB	0x55, 0xaa
   121 00007E00                                 
   122 00007E00                                 
